; Function Attrs: nofree norecurse nosync nounwind memory(none) uwtable
define hidden noundef ptr @mbedtls_ecp_curve_info_from_grp_id(i32 noundef %0) local_unnamed_addr #3 {
  br label %2

2:                                                ; preds = %1, %5
  %3 = phi i32 [ 5, %1 ], [ %7, %5 ]
  %.07 = phi ptr [ @ecp_supported_curves, %1 ], [ %6, %5 ]
  %4 = icmp eq i32 %3, %0
  br i1 %4, label %8, label %5

5:                                                ; preds = %2
  %6 = getelementptr inbounds nuw i8, ptr %.07, i64 16
  %7 = load i32, ptr %6, align 8, !tbaa !7
  %.not = icmp eq i32 %7, 0
  br i1 %.not, label %8, label %2, !llvm.loop !14

8:                                                ; preds = %5, %2
  %.05 = phi ptr [ %.07, %2 ], [ null, %5 ]
  ret ptr %.05
}